(dp1
S'output'
p2
S''
sS'layer'
p3
S'D:\\cefet\\2009.2, 2010.1\\LocalHostWeb2Py\\MESTRE-20100227\\web2py\\applications\\Mestre/controllers/mcrud.py'
p4
sS'code'
p5
S"# coding: utf8\n# try something like\n\n\n@auth.requires_login()\ndef list():\n    tabela=request.args(0) or redirect(URL(r=request,f='../default/error'))\n    try:\n       form=crud.create(db[tabela])\n    except: KeyError:\n       redirect(URL(r=request,f='../default/error')) \n    registros=db().select(db[tabela].ALL)\n    response.flash='Lista ' + tabela\n    return dict(registros=registros,form=form)\n\nresponse._vars=response._caller(list)\n"
p6
sS'traceback'
p7
S'Traceback (most recent call last):\n  File "D:\\cefet\\2009.2, 2010.1\\LocalHostWeb2Py\\MESTRE-20100227\\web2py\\gluon\\restricted.py", line 171, in restricted\n    ccode = compile(code.replace(\'\\r\\n\', \'\\n\'), layer, \'exec\')\n  File "D:\\cefet\\2009.2, 2010.1\\LocalHostWeb2Py\\MESTRE-20100227\\web2py\\applications\\Mestre/controllers/mcrud.py", line 10\n    except: KeyError:\n                    ^\nSyntaxError: invalid syntax\n'
p8
s.