(dp1
S'output'
p2
S''
sS'layer'
p3
S'D:\\cefet\\2009.2, 2010.1\\LocalHostWeb2Py\\MESTRE-20100127\\web2py\\applications\\Mestre/controllers/alocacao.py'
p4
sS'code'
p5
S'# coding: utf8\n# try something like\n\n@auth.requires_login() \ndef list_alocacoes():\n  row_professor=db(db.professor.usuario==auth.user.id).select(db.professor.ALL)\n  if row_professor:  \n    form = SQLFORM(db.alocacao)\n    if form.accepts(request.vars,session):\n            redirect(URL(r=request,f=\'cad_alocacao\'))\n    if form.errors: response.flash=\'Erro em seu formul\xc3\xa1rio\'\n    list_alunos=db(db.aluno.id>0).select(db.aluno.ALL,db.auth_user.ALL,left=db.auth_user.on(db.aluno.usuario==db.auth_user.id))\n    list_turmas=db(db.turma.id>0).select(db.turma.ALL,db.disciplina.ALL,left=db.disciplina.on(db.turma.disciplina==db.disciplina.id))\n    return dict(form=form,list_alunos=list_alunos,list_turmas=list_turmas)\n  else:\n    response.flash="S\xc3\xb3 acessado por professores valeu!"\n    redirect(URL(r=response,f=\'../default/index\'))\n  return\n    \n\n@auth.requires_login()   \ndef ver_alocacao():\n    row_alocacao=db().select(db.alocacao.ALL)\n    return dict(row_alocacao=row_alocacao)\n\n@auth.requires_login()   \ndef cad_alocacao():\n    alocacao = SQLFORM(db.alocacao)\n    if alocacao.accepts(request.vars,session):\n            redirect(URL(r=request,f=\'ver_alocacao\'))\n    if alocacao.errors: response.flash=\'Erro em seu formul\xc3\xa1rio\'\n    return dict(alocacao=alocacao)\n\nresponse._vars=response._caller(list_alocacoes)\n'
p6
sS'traceback'
p7
S'Traceback (most recent call last):\n  File "D:\\cefet\\2009.2, 2010.1\\LocalHostWeb2Py\\MESTRE-20100127\\web2py\\gluon\\restricted.py", line 173, in restricted\n    exec ccode in environment\n  File "D:\\cefet\\2009.2, 2010.1\\LocalHostWeb2Py\\MESTRE-20100127\\web2py\\applications\\Mestre/controllers/alocacao.py", line 34, in <module>\n  File "D:\\cefet\\2009.2, 2010.1\\LocalHostWeb2Py\\MESTRE-20100127\\web2py\\gluon\\globals.py", line 96, in <lambda>\n    self._caller = lambda f: f()\n  File "D:\\cefet\\2009.2, 2010.1\\LocalHostWeb2Py\\MESTRE-20100127\\web2py\\gluon\\tools.py", line 1640, in f\n    return action(*a, **b)\n  File "D:\\cefet\\2009.2, 2010.1\\LocalHostWeb2Py\\MESTRE-20100127\\web2py\\applications\\Mestre/controllers/alocacao.py", line 17, in list_alocacoes\n    redirect(URL(r=response,f=\'../default/index\'))\n  File "D:\\cefet\\2009.2, 2010.1\\LocalHostWeb2Py\\MESTRE-20100127\\web2py\\gluon\\html.py", line 173, in URL\n    raise SyntaxError, \'not enough information to build the url\'\nSyntaxError: not enough information to build the url\n'
p8
s.