(dp1
S'output'
p2
S''
sS'layer'
p3
S'D:\\cefet\\2009.2, 2010.1\\LocalHostWeb2Py\\MESTRE-20100210\\web2py\\applications\\Mestre/controllers/planoprova.py'
p4
sS'code'
p5
S"# coding: utf8\n# try something like\n   \n@auth.requires_login()\ndef cad_planoprova():\n    planoprova = SQLFORM(db.plano_de_prova)\n    if planoprova.accepts(request.vars,session):\n            redirect(URL(r=request,f='ver_planoprova'))\n    if planoprova.errors: response.flash='Erro em seu formul\xc3\xa1rio'\n    return dict(planoprova=planoprova)\n\ndef ver_planoprova():\n    row_planoprova=db().select(db.plano_de_prova.ALL)\n    return dict(row_planoprova=row_planoprova)\n\n\n@auth.requires_login()\ndef list_planodeprovas():\n   form=crud.create(db.plano_de_prova)\n   form2=crud.create(db.item_plano_de_prova)\n   professores=db(db.professor.id>0).select(db.professor.ALL)\n   planodeprovas=db(db.plano_de_prova.id>0).select(db.plano_de_prova.ALL,db.item_plano_de_prova.ALL, left=db.item_plano_de_prova.on(db.item_plano_de_prova.plano_de_prova==db.plano_de_prova.id))\n   planodeprovas.db(db.plano_de_prova.taxionomia>0).select(db.taxionomia.ALL,left=db.plano_de_prova.on(db.plano_de_prova.taxionomia==db.taxionomia.id))\n   response.flash='Lista Plano de Prova'\n   return dict(professores=professores,planodeprovas=planodeprovas,form=form,form2=form2)\n\n@auth.requires_login()\ndef edit_planodeprova():\n   planodeprova_id=request.args(0)\n   planodeprova=db.plano_de_prova[planodeprova_id] or redirect(URL(r=request,f='../default/error'))\n   form=crud.update(db.plano_de_prova,planodeprova,next=url('list_planodeprovas'))\n   return dict(form=form)\n\nresponse._vars=response._caller(list_planodeprovas)\n"
p6
sS'traceback'
p7
S'Traceback (most recent call last):\n  File "D:\\cefet\\2009.2, 2010.1\\LocalHostWeb2Py\\MESTRE-20100210\\web2py\\gluon\\restricted.py", line 173, in restricted\n    exec ccode in environment\n  File "D:\\cefet\\2009.2, 2010.1\\LocalHostWeb2Py\\MESTRE-20100210\\web2py\\applications\\Mestre/controllers/planoprova.py", line 34, in <module>\n  File "D:\\cefet\\2009.2, 2010.1\\LocalHostWeb2Py\\MESTRE-20100210\\web2py\\gluon\\globals.py", line 96, in <lambda>\n    self._caller = lambda f: f()\n  File "D:\\cefet\\2009.2, 2010.1\\LocalHostWeb2Py\\MESTRE-20100210\\web2py\\gluon\\tools.py", line 1848, in f\n    return action(*a, **b)\n  File "D:\\cefet\\2009.2, 2010.1\\LocalHostWeb2Py\\MESTRE-20100210\\web2py\\applications\\Mestre/controllers/planoprova.py", line 23, in list_planodeprovas\n    planodeprovas.db(db.plano_de_prova.taxionomia>0).select(db.taxionomia.ALL,left=db.plano_de_prova.on(db.plano_de_prova.taxionomia==db.taxionomia.id))\n  File "D:\\cefet\\2009.2, 2010.1\\LocalHostWeb2Py\\MESTRE-20100210\\web2py\\gluon\\sql.py", line 1556, in __getattr__\n    return dict.__getitem__(self,key)\nKeyError: \'taxionomia\'\n'
p8
s.