(dp1
S'output'
p2
S''
sS'layer'
p3
S'D:\\cefet\\2009.2, 2010.1\\LocalHostWeb2Py\\MESTRE-20100210\\web2py\\applications\\Mestre/controllers/turma.py'
p4
sS'code'
p5
S"# coding: utf8\n# try something like\n\ndef cad_turma():\n    turma = SQLFORM(db.turma)\n    if turma.accepts(request.vars,session):\n            redirect(URL(r=request,f='ver_turma'))\n    if turma.errors: response.flash='Erro em seu formul\xc3\xa1rio'\n    return dict(turma=turma)\n\ndef ver_turma():\n    row_turma=db().select(db.turma.ALL)\n    return dict(row_turma=row_turma)\n    \ndef teste_turma():\n    row_alocacao = db(db.alocacao.aluno==auth.user.id).select(db.alocacao.ALL)\n    id = row_alocacao.alocacao.turma\n    row_turma = db().select(db.turma.ALL)\n    return dict(row_turma=row_turma)\n    \n@auth.requires_login()\ndef list_turmas():\n   form=crud.create(db.turma)\n   turmas=db(db.turma.id>0).select(db.turma.ALL,db.disciplina.ALL,left=db.disciplina.on(db.turma.disciplina==db.disciplina.id),orderby='turma')\n   response.flash='Lista Turma'\n   return dict(turmas=turmas,form=form)\n\n@auth.requires_login()\ndef edit_turma():\n   turma_id=request.args(0)\n   turma=db.turma[turma_id] or redirect(URL(r=request,f='../default/error'))\n   form=crud.update(db.turma,turma,next=url('list_turmas'))\n   return dict(form=form)\n\nresponse._vars=response._caller(list_turmas)\n"
p6
sS'traceback'
p7
S'Traceback (most recent call last):\n  File "D:\\cefet\\2009.2, 2010.1\\LocalHostWeb2Py\\MESTRE-20100210\\web2py\\gluon\\restricted.py", line 173, in restricted\n    exec ccode in environment\n  File "D:\\cefet\\2009.2, 2010.1\\LocalHostWeb2Py\\MESTRE-20100210\\web2py\\applications\\Mestre/controllers/turma.py", line 35, in <module>\n  File "D:\\cefet\\2009.2, 2010.1\\LocalHostWeb2Py\\MESTRE-20100210\\web2py\\gluon\\globals.py", line 96, in <lambda>\n    self._caller = lambda f: f()\n  File "D:\\cefet\\2009.2, 2010.1\\LocalHostWeb2Py\\MESTRE-20100210\\web2py\\gluon\\tools.py", line 1848, in f\n    return action(*a, **b)\n  File "D:\\cefet\\2009.2, 2010.1\\LocalHostWeb2Py\\MESTRE-20100210\\web2py\\applications\\Mestre/controllers/turma.py", line 24, in list_turmas\n    turmas=db(db.turma.id>0).select(db.turma.ALL,db.disciplina.ALL,left=db.disciplina.on(db.turma.disciplina==db.disciplina.id),orderby=\'turma\')\n  File "D:\\cefet\\2009.2, 2010.1\\LocalHostWeb2Py\\MESTRE-20100210\\web2py\\gluon\\sql.py", line 3023, in select\n    rows = response(query)\n  File "D:\\cefet\\2009.2, 2010.1\\LocalHostWeb2Py\\MESTRE-20100210\\web2py\\gluon\\sql.py", line 3018, in response\n    db._execute(query)\n  File "D:\\cefet\\2009.2, 2010.1\\LocalHostWeb2Py\\MESTRE-20100210\\web2py\\gluon\\sql.py", line 926, in <lambda>\n    self._execute = lambda *a, **b: self._cursor.execute(*a, **b)\n  File "C:\\Python26\\lib\\site-packages\\MySQLdb\\cursors.py", line 166, in execute\n    self.errorhandler(self, exc, value)\n  File "C:\\Python26\\lib\\site-packages\\MySQLdb\\connections.py", line 35, in defaulterrorhandler\n    raise errorclass, errorvalue\nOperationalError: (1054, "Unknown column \'turma\' in \'order clause\'")\n'
p8
s.