(dp1
S'output'
p2
S''
sS'layer'
p3
S'D:\\cefet\\2009.2, 2010.1\\LocalHostWeb2Py\\CEFET-MESTRE\\web2py\\applications\\Mestre/models/menu.py'
p4
sS'code'
p5
S"# coding: utf8\n\n#########################################################################\n## Customize your APP title, subtitle and menus here\n#########################################################################\n\nresponse.title = request.application\nresponse.subtitle = T('Mecanismo Sinergico de Treinamento')\n\n##########################################\n## this is the authentication menu\n## remove if not necessary\n##########################################\n\nif 'auth' in globals():\n    if not auth.is_logged_in():\n       response.menu_auth = [\n           ['Logar', False, auth.settings.login_url,\n                [\n                   ['Registrar', False,\n                    URL(request.application,'default','user/register')],\n                   ['Esqueci a Senha', False,\n                    URL(request.application,'default','user/retrieve_password')]]\n            ],\n       ]\n       response.menu = [\n          [T('Index'), \n           False, \n           URL(request.application,'default','index'), []\n          ],\n          [T('Creditos'), \n           False, \n           URL(request.application,'default','index'), []\n          ],\n       ]\n    else:\n       row_admins=db(db.administrador.usuario==auth.user.id).select(db.administrador.ALL)\n       if row_admins:\n          response.menu_auth = [\n            ['Admin: '+auth.user.first_name,False,None,\n                 [\n                    ['Deslogar', False, \n                     URL(request.application,'default','user/logout')],\n                    ['Alterar Perfil', False, \n                     URL(request.application,'default','user/profile')],\n                    ['Mudar a Senha', False,\n                     URL(request.application,'default','user/change_password')],\n                    ['Menu de Administracao', False,\n                     URL('admin','default','index')],\n                    ['Tabelas', False, \n                     URL('appadmin','index')],\n                    ['Administrador', False, URL(request.application,'mcrud','cadlist/administrador')]\n                ]\n             ],\n           ]\n       else:\n          response.menu_auth = [\n            ['Usuario: '+auth.user.first_name,False,None,\n                 [\n                    [T('Deslogar'), False, \n                     URL(request.application,'default','user/logout')],\n                    [T('Alterar Perfil'), False, \n                     URL(request.application,'default','user/profile')],\n\n                 ]\n             ],\n           ]\n       row_professor=db(db.professor.usuario==auth.user.id).select(db.professor.ALL)\n       if row_professor:\n         response.menu = [\n            [T('Index'), \n             False, \n             URL(request.application,'default','index'), []\n            ],\n                ['Cadastros', \n                 False, \n                 URL(request.application,'appcadastro','index'), \n                      [\n                       ['Usuario', \n                            False, \n                            URL(request.application,'mcrud','cadlist/auth_user'), [\n                            ['Professor', \n                                    False, \n                                    URL(request.application,'mcrud','cadlist/professor'), []\n                            ],\n                            ['Aluno', \n                                    False, \n                                    URL(request.application,'mcrud','cadlist/aluno'), []\n                            ],          \n                           ]\n                       ],\n                       ['Instituicao', \n                            False, \n                            URL(request.application,'mcrud','cadlist/instituicao'), [\n                            ['Curso', \n                                    False, \n                                    URL(request.application,'mcrud','cadlist/curso'), []\n                            ],          \n                            ['Disciplina', \n                                    False, \n                                    URL(request.application,'mcrud','cadlist/disciplina'), []\n                            ],                  \n                            ['Turma', \n                                    False, \n                                    URL(request.application,'mcrud','cadlist/turma'), [\n                                    ['Alocacao', \n                                            False, \n                                            URL(request.application,'mcrud','cadlist/alocacao'), []\n                                    ],                      \n                                   ]\n                            ],                  \n                           ]\n                       ],\n                       ['Plano de Prova', \n                            False, \n                            URL(request.application,'mcrud','cadlist/plano_de_prova'), [\n                                    ['Item Plano de Prova', \n                                            False, \n                                            URL(request.application,'mcrud','cadlist/item_plano_de_prova'), []\n                                    ],                        \n                                   ]\n                       ],                  \n                       ['Prova', \n                            False, \n                            URL(request.application,'mcrud','cadlist/prova'), [\n                                    ['Topico', \n                                            False, \n                                            URL(request.application,'mcrud','cadlist/topico'), []\n                                    ],\n                                    ['Questao', \n                                            False, \n                                            URL(request.application,'mcrud','cadlist/questao'), []\n                                    ],     \n                                    ['Alternativa', \n                                            False, \n                                            URL(request.application,'mcrud','cadlist/alternativa'), []\n                                    ],\n                                    ['Aplicar Prova', \n                                            False, \n                                            URL(request.application,'aplicaprova','aplicar_prova'), []\n                                    ],\n                                    ['Lista Prova Gerada', \n                                            False, \n                                            URL(request.application,'mcrud','cadlist/prova_gerada/list'), []\n                                    ],\n                                   ]\n                       ],  \n                      ]             \n               ],\n               ['Relatorios', \n                 False, \n                 URL(request.application,'appcadastro','index'), [\n                       ['Usuario', \n                            False, \n                            URL(request.application,'mcrud','cadlist/auth_user/list'), []\n                       ],\n                       ['Professor', \n                            False, \n                            URL(request.application,'mcrud','cadlist/professor/list'), []\n                       ],\n                       ['Aluno', \n                            False, \n                            URL(request.application,'mcrud','cadlist/aluno/list'), []\n                       ],\n                       ['Instituicao', \n                            False, \n                            URL(request.application,'mcrud','cadlist/instituicao/list'), []\n                       ],\n                       ['Curso', \n                            False, \n                            URL(request.application,'mcrud','cadlist/curso/list'), []\n                       ],\n                       ['Disciplina', \n                            False, \n                            URL(request.application,'mcrud','cadlist/disciplina/list'), []\n                       ],\n                       ['Turma', \n                            False, \n                            URL(request.application,'mcrud','cadlist/turma/list'), []\n                       ],\n                       ['Alocacao', \n                            False, \n                            URL(request.application,'mcrud','cadlist/alocacao/list'), []\n                       ],\n                       ['Topico', \n                            False, \n                            URL(request.application,'mcrud','cadlist/topico/list'), []\n                       ],\n                       ['Questao', \n                            False, \n                            URL(request.application,'mcrud','cadlist/questao/list'), []\n                       ],\n                       ['Plano de Prova', \n                            False, \n                            URL(request.application,'mcrud','cadlist/plano_de_prova/list'), []\n                       ],\n                       ['Prova', \n                            False, \n                            URL(request.application,'mcrud','cadlist/prova/list'), []\n                       ],\n                       ['Gerar Relatorio por Aluno', \n                            False, \n                            URL(request.application,'aluno','ver_relAluno'), []\n                       ],\n                       ['Gerar Relatorio por Aluno', \n                            False, \n                            URL(request.application,'aluno','ver_relAluno'), []\n                       ],\n                       ['Gerar Relatorio por Professor', \n                            False, \n                            URL(request.application,'professor','ver_relProfessor'), []\n                       ],\n                       ['Gerar Relatorio de Resultados Por Turma', \n                            False, \n                            URL(request.application,'turma','ver_relTurma'), []\n                       ],\n                  ]\n               ],\n        [T('Creditos'), \n         False, \n         URL(request.application,'default','index'), []\n        ],\n       ]\n       else:\n        response.menu = [\n            [T('Index'), \n             False, \n             URL(request.application,'default','index'), []\n            ],\n                ['Cadastros', \n                 False, \n                 URL(request.application,'uteis','index'), [\n                       ['Realiza Prova', \n                            False, \n                            URL(request.application,'realizaprova','realizar_prova'), []\n                       ],\n                      ]\n\n               ],\n               ['Relatorios', \n                 False, \n                 URL(request.application,'appcadastro','index'), [\n                       ['Gerar Relatorio por Aluno', \n                            False, \n                            URL(request.application,'aluno','ver_relAluno'), []\n                       ],\n                       ['Gerar Relatorio por Aluno', \n                            False, \n                            URL(request.application,'aluno','ver_relAluno'), []\n                       ],\n                       ['Gerar Relatorio por Professor', \n                            False, \n                            URL(request.application,'professor','ver_relProfessor'), []\n                       ],\n                       ['Gerar Relatorio de Resultados Por Turma', \n                            False, \n                            URL(request.application,'turma','ver_relTurma'), []\n                       ],\n                  ]\n               ],\n        [T('Creditos'), \n         False, \n         URL(request.application,'default','creditos'), []\n        ],\n       ]\n##########################################\n## this is here to provide shortcuts\n## during development. remove in production \n##########################################\n\nresponse.menu_edit=[\n  [T('Alterar'), False, URL('admin', 'default', 'design/%s' % request.application),\n   [\n            [T('Controller'), False, \n             URL('admin', 'default', 'edit/%s/controllers/default.py' \\\n                     % request.application)],\n            [T('View'), False, \n             URL('admin', 'default', 'edit/%s/views/%s' \\\n                     % (request.application,response.view))],\n            [T('Layout'), False, \n             URL('admin', 'default', 'edit/%s/views/layout.html' \\\n                     % request.application)],\n            [T('Stylesheet'), False, \n             URL('admin', 'default', 'edit/%s/static/base.css' \\\n                     % request.application)],\n            [T('DB Model'), False, \n             URL('admin', 'default', 'edit/%s/models/db.py' \\\n                     % request.application)],\n            [T('Menu Model'), False, \n             URL('admin', 'default', 'edit/%s/models/menu.py' \\\n                     % request.application)],\n            [T('Database'), False, \n             URL(request.application, 'appadmin', 'index')],\n            ]\n   ],\n  ]\n"
p6
sS'traceback'
p7
S'Traceback (most recent call last):\n  File "D:\\cefet\\2009.2, 2010.1\\LocalHostWeb2Py\\CEFET-MESTRE\\web2py\\gluon\\restricted.py", line 178, in restricted\n    exec ccode in environment\n  File "D:\\cefet\\2009.2, 2010.1\\LocalHostWeb2Py\\CEFET-MESTRE\\web2py\\applications\\Mestre/models/menu.py", line 51, in <module>\n    URL(\'appadmin\',\'index\')],\n  File "D:\\cefet\\2009.2, 2010.1\\LocalHostWeb2Py\\CEFET-MESTRE\\web2py\\gluon\\html.py", line 175, in URL\n    raise SyntaxError, \'not enough information to build the url\'\nSyntaxError: not enough information to build the url\n'
p8
s.