(dp1
S'output'
p2
S''
sS'layer'
p3
S'C:\\cefet\\2009.2,2010.1\\LocalHostWeb2Py\\cefet-mestre\\web2py\\applications\\Mestre/views/mcrud/cadlist.html'
p4
sS'code'
p5
S'response.write(\'<!DOCTYPE html PUBLIC "-//W3C//DTD XHTML 1.0 Transitional//EN" "http://www.w3.org/TR/xhtml1/DTD/xhtml1-transitional.dtd">\\r\\n<html xmlns="http://www.w3.org/1999/xhtml" xml:lang="\',escape=False)\nresponse.write(T.accepted_language or \'br\')\nresponse.write(\'">\\r\\n<head>\\r\\n    <title>\',escape=False)\nresponse.write(response.title or request.application)\nresponse.write(\'</title>\\r\\n    <meta http-equiv="Content-Type" content="text/html; charset=UTF-8" />\\r\\n\',escape=False)\nresponse.files.append(URL(r=request,c=\'static\',f=\'jquery.dataTables.min.js\'))\nresponse.write(\'\\r\\n\',escape=False)\nresponse.files.append(URL(r=request,c=\'static\',f=\'demo_table.css\'))\nresponse.write(\'\\r\\n<!DOCTYPE html PUBLIC "-//W3C//DTD XHTML 1.0 Transitional//EN"\\r\\n   "http://www.w3.org/TR/xhtml1/DTD/xhtml1-transitional.dtd">\\r\\n<html xmlns="http://www.w3.org/1999/xhtml"\\r\\n      xml:lang="\',escape=False)\nresponse.write(T.accepted_language or \'en\')\nresponse.write(\'">\\r\\n  <head>\\r\\n      <title>\',escape=False)\nresponse.write(response.title or \'response.title\')\nresponse.write(\'</title>\\r\\n      <meta http-equiv="Content-Type" content="text/html; charset=UTF-8" />\\r\\n      <meta name="copyright" content="\',escape=False)\nresponse.write(response.copyright or \'\')\nresponse.write(\'" />\\r\\n      <meta name="keywords" content="\',escape=False)\nresponse.write(response.keywords or \'\')\nresponse.write(\'" />\\r\\n      <meta name="description" content="\',escape=False)\nresponse.write(response.description or \'\')\nresponse.write(\'" />\\r\\n      <meta name="robots" content="index,follow" />\\r\\n      \',escape=False)\nresponse.files.insert(0,URL(r=request,c=\'static\',f=\'jquery.js\'))\nresponse.files.insert(1,URL(r=request,c=\'static\',f=\'calendar.css\'))\nresponse.files.insert(2,URL(r=request,c=\'static\',f=\'calendar.js\'))\nfor _item in response.meta or []:\n    response.write(\'\\n     <meta name="\',escape=False)\n    response.write(_item)\n    response.write(\'" content="\',escape=False)\n    response.write(response.meta[_item])\n    response.write(\'" />\',escape=False)\n    pass\nfor _k,_file in enumerate(response.files or []):\n    if _file in response.files[:_k]:\n        continue\n    elif _file[-4:].lower()==\'.css\':\n        response.write(\'\\n     <link href="\',escape=False)\n        response.write(_file)\n        response.write(\'" rel="stylesheet" type="text/css" charset="utf-8" />\',escape=False)\n    elif _file[-3:].lower()==\'.js\':\n        response.write(\'\\n     <script src="\',escape=False)\n        response.write(_file)\n        response.write(\'" type="text/javascript"></script>\',escape=False)\n        pass\n    pass\nresponse.write(\'\\n<script type="text/javascript"><!--\\nfunction popup(url) {\\n  newwindow=window.open(url,\\\'name\\\',\\\'height=400,width=600\\\');\\n  if (window.focus) newwindow.focus();\\n  return false;\\n}\\nfunction collapse(id) { jQuery(\\\'#\\\'+id).slideToggle(); }\\nfunction fade(id,value) { if(value>0) jQuery(\\\'#\\\'+id).hide().fadeIn(\\\'slow\\\'); else jQuery(\\\'#\\\'+id).show().fadeOut(\\\'slow\\\'); }\\nfunction ajax(u,s,t) {\\n  var query="";\\n  for(i=0; i<s.length; i++) { \\n     if(i>0) query=query+"&";\\n     query=query+encodeURIComponent(s[i])+"="+encodeURIComponent(document.getElementById(s[i]).value);\\n  }\\n  jQuery.ajax({type: "POST", url: u, data: query, success: function(msg) { if(t==\\\':eval\\\') eval(msg); else document.getElementById(t).innerHTML=msg; } });  \\n}\\nString.prototype.reverse = function () { return this.split(\\\'\\\').reverse().join(\\\'\\\');};\\nfunction web2py_ajax_init() {\\n  jQuery(\\\'.hidden\\\').hide();\\n  jQuery(\\\'.error\\\').hide().slideDown(\\\'slow\\\');\\n  jQuery(\\\'.flash\\\').click(function() { jQuery(this).fadeOut(\\\'slow\\\'); return false; });\\n  jQuery(\\\'input.string\\\').attr(\\\'size\\\',50);\\n  jQuery(\\\'textarea.text\\\').attr(\\\'cols\\\',50).attr(\\\'rows\\\',10);\\n  jQuery(\\\'input.integer\\\').keyup(function(){this.value=this.value.reverse().replace(/[^0-9\\\\-]|\\\\-(?=.)/g,\\\'\\\').reverse();});\\n  jQuery(\\\'input.double\\\').keyup(function(){this.value=this.value.reverse().replace(/[^0-9\\\\-\\\\.]|[\\\\-](?=.)|[\\\\.](?=[0-9]*[\\\\.])/g,\\\'\\\').reverse();});\\n  jQuery(\\\'input.delete\\\').attr(\\\'onclick\\\',\\\'if(this.checked) if(!confirm("\',escape=False)\nresponse.write(T(\'Sure you want to delete this object?\'))\nresponse.write(\'")) this.checked=false;\\\');\\n  try {jQuery("input.date").focus( function() {Calendar.setup({\\n     inputField:this.id, ifFormat:"\',escape=False)\nresponse.write(T(\'%Y-%m-%d\'))\nresponse.write(\'", showsTime:false\\n  }); }); } catch(e) {};\\n  try { jQuery("input.datetime").focus( function() {Calendar.setup({\\n     inputField:this.id, ifFormat:"\',escape=False)\nresponse.write(T(\'%Y-%m-%d %H:%M:%S\'))\nresponse.write(\'", showsTime: true,timeFormat: "24"\\n  }); }); } catch(e) {};\\n  try { jQuery("input.time").clockpick({\\n      starthour:0, endhour:23, showminutes:true, military:true\\n  }); } catch(e) {};\\n};\\njQuery(document).ready(function(){\\n   jQuery(\\\'.flash\\\').hide();\\n   if(jQuery(\\\'.flash\\\').html()!=\\\'\\\') jQuery(\\\'.flash\\\').slideDown(\\\'slow\\\');\\n   web2py_ajax_init();});\\n\\nfunction web2py_trap_form(action,target) {\\n   jQuery(\\\'#\\\'+target+\\\' form\\\').each(function(i){\\n      var form=jQuery(this);\\n      jQuery(\\\'input[type="submit"]\\\',this).click(function(){\\n         jQuery(\\\'.flash\\\').hide().html(\\\'\\\');\\n         web2py_ajax_page(\\\'post\\\',action,form.serialize(),target);\\n         return false;\\n      });\\n   });\\n}\\nfunction web2py_ajax_page(method,action,data,target) {\\n  jQuery.ajax({\\\'type\\\':method,\\\'url\\\':action,\\\'data\\\':data,\\n    \\\'beforeSend\\\':function(xhr){\\n      xhr.setRequestHeader(\\\'web2py-component-location\\\',document.location);\\n      xhr.setRequestHeader(\\\'web2py-component-element\\\',target);},\\n    \\\'complete\\\':function(xhr,text){\\n      command=xhr.getResponseHeader(\\\'web2py-component-command\\\');\\n      if(command) eval(command);\\n      flash=xhr.getResponseHeader(\\\'web2py-component-flash\\\');\\n      if(flash) jQuery(\\\'.flash\\\').html(flash).slideDown();\\n      },\\n    \\\'success\\\': function(text) {\\n      jQuery(\\\'#\\\'+target).html(text);\\n      web2py_trap_form(action,target);\\n      web2py_ajax_init();\\n      }\\n    });\\n}\\nfunction web2py_component(action,target) {\\n    jQuery(document).ready(function(){ web2py_ajax_page(\\\'get\\\',action,null,target); });\\n}\\n//--></script>\\n\\r\\n      <link rel="stylesheet" media="screen,projection" type="text/css" \\r\\n            href="\',escape=False)\nresponse.write(URL(request.application,\'static\',\'base.css\'))\nresponse.write(\'" />\\r\\n  </head>\\r\\n  <body>\\r\\n    <div class="wrapper">\\r\\n      <table class="layout">\\r\\n        <tr>\\r\\n          <td colspan="3"  class="header">\\r\\n            <img heigth="30%" width="30%" align="rigth" src="/Mestre/static/logo.gif"/>\\r\\n            <!--<h1>\\r\\n            \',escape=False)\ntitle=response.title or \'response.title\'\nresponse.write(\'            \\r\\n            \',escape=False)\nresponse.write(A(title, _href=URL(request.application,\'default\',\'index\')))\nresponse.write(\'\\r\\n            </h1>            \\r\\n            <h3>\',escape=False)\nresponse.write(response.subtitle or \'response.subtitle\')\nresponse.write(\'</h3>-->\\r\\n          </td>\\r\\n        </tr>\\r\\n        <tr>\\r\\n          <td colspan="3" class="statusbar">\\r\\n            \',escape=False)\nresponse.write(\'/\'.join([\'\',request.application,request.controller,request.function]+request.args))\nresponse.write(\'\\r\\n          </td>\\r\\n        </tr>\\r\\n        <tr>\\r\\n          <td class="width10em column1">\\r\\n            \',escape=False)\nif response.menu_auth:\n    response.write(\'\\r\\n            <h2>Autentica\\xc3\\xa7\\xc3\\xa3o</h2>\\r\\n            \',escape=False)\n    response.write(MENU(response.menu_auth))\n    response.write(\'\\r\\n            \',escape=False)\n    pass\nresponse.write(\'\\r\\n            \',escape=False)\nif response.menu:\n    response.write(\'\\r\\n            <h2>Menu</h2>\\r\\n            \',escape=False)\n    response.write(MENU(response.menu))\n    response.write(\'\\r\\n            \',escape=False)\n    pass\nresponse.write(\'\\r\\n            \',escape=False)\nif not auth.user:\n    response.write(\'\\r\\n            <a href="\',escape=False)\n    response.write(URL(r=request,f=\'../default/user/login\'))\n    response.write(\'">login</a>\\r\\n            \',escape=False)\nelse:\n    response.write(\'\\r\\n            \',escape=False)\n    response.write(auth.user.first_name)\n    response.write(\' |\\r\\n            <a href="\',escape=False)\n    response.write(URL(r=request,f=\'../default/user/logout\'))\n    response.write(\'">logout</a> |\\r\\n            <a href="\',escape=False)\n    response.write(URL(r=request,f=\'../default/user/change_password\'))\n    response.write(\'">password</a> |\\r\\n            <a href="\',escape=False)\n    response.write(URL(r=request,f=\'../default/user/profile\'))\n    response.write(\'">profile</a>\\r\\n            \',escape=False)\n    pass\nresponse.write(\' \\r\\n            <br />\\r\\n          </td>\\r\\n          <td class="expandable column2">\\r\\n            <div class="flash">\',escape=False)\nresponse.write(response.flash or \'\')\nresponse.write("</div>\\r\\n            \\r\\n</head>\\r\\n<script>\\r\\n$(document).ready(function() { \\r\\n  jQuery(\'.smarttable\').dataTable(); \\r\\n});\\r\\n</script>\\r\\n\\r\\n",escape=False)\nif tabela == \'auth_user\': tabela=\'usuario\'\nresponse.write(\'\\r\\n\',escape=False)\nflayout=0\nresponse.write(\'\\r\\n\',escape=False)\nif form != \'\':\n    response.write(\'\\r\\n    <h1>Lista\\r\\n    \',escape=False)\n    if request.args(1) != \'list\':\n        response.write(\'\\r\\n         e Cadastra\\r\\n    \',escape=False)\n        pass\n    response.write(\'\\r\\n    </h1>\\r\\n    [<a href="#nil" onclick="jQuery(\\\'#form\\\').slideToggle();">Cadastro</a>]\\r\\n    <!--Link do cadastro-->\\r\\n    \',escape=False)\n    if tabela == \'aluno\':\n        response.write(\'\\r\\n        \',escape=False)\n        response.write(button(\'Lista Usuario\',\'cadlist/auth_user\'))\n        response.write(\'\\r\\n        \',escape=False)\n        response.write(button(\'Lista de Aloca\xc3\xa7\xc3\xa3o\',\'cadlist/alocacao\'))\n        response.write(\'\\r\\n    \',escape=False)\n        pass\n    response.write(\'\\r\\n    \',escape=False)\n    if tabela == \'professor\':\n        response.write(\'\\r\\n        \',escape=False)\n        response.write(button(\'Lista Usuario\',\'cadlist/auth_user\'))\n        response.write(\'\\r\\n        \',escape=False)\n        response.write(button(\'Lista de Aloca\xc3\xa7\xc3\xa3o\',\'cadlist/alocacao\'))\n        response.write(\'    \\r\\n    \',escape=False)\n        pass\n    response.write(\'\\r\\n    \',escape=False)\n    if tabela == \'alocacao\':\n        response.write(\'\\r\\n        \',escape=False)\n        response.write(button(\'Lista Plano de Prova\',\'cadlist/plano_de_prova\'))\n        response.write(\'\\r\\n        \',escape=False)\n        response.write(button(\'Lista Aluno\',\'cadlist/aluno\'))\n        response.write(\'    \\r\\n        \',escape=False)\n        response.write(button(\'Lista Turma\',\'cadlist/turma\'))\n        response.write(\'\\r\\n    \',escape=False)\n        pass\n    response.write(\'\\r\\n    \',escape=False)\n    if tabela == \'disciplina\':\n        response.write(\'\\r\\n        \',escape=False)\n        response.write(button(\'Lista Curso\',\'cadlist/curso\'))\n        response.write(\'\\r\\n        \',escape=False)\n        response.write(button(\'Lista Turma\',\'cadlist/turma\'))\n        response.write(\'\\r\\n    \',escape=False)\n        pass\n    response.write(\'\\r\\n    \',escape=False)\n    if tabela == \'plano_de_prova\':\n        response.write(\'\\r\\n        \',escape=False)\n        response.write(button(\'Lista Aloca\xc3\xa7\xc3\xa3o\',\'cadlist/alocacao\'))\n        response.write(\'\\r\\n        \',escape=False)\n        response.write(button(\'Lista Item de Plano de Prova\',\'cadlist/item_plano_de_prova\'))\n        response.write(\'\\r\\n    \',escape=False)\n        pass\n    response.write(\'\\r\\n    \',escape=False)\n    if tabela == \'item_plano_de_prova\':\n        response.write(\'\\r\\n        \',escape=False)\n        response.write(button(\'Lista Aloca\xc3\xa7\xc3\xa3o\',\'cadlist/alocacao\'))\n        response.write(\'\\r\\n        \',escape=False)\n        response.write(button(\'Lista Plano de Prova\',\'cadlist/plano_de_prova\'))\n        response.write(\'\\r\\n        \',escape=False)\n        response.write(button(\'Lista Topico\',\'cadlist/topico\'))\n        response.write(\'\\r\\n        \',escape=False)\n        response.write(button(\'Lista Dificuldade\',\'cadlist/dificuldade\'))\n        response.write(\'\\r\\n        \',escape=False)\n        response.write(button(\'Lista Taxionomia\',\'cadlist/taxionomia\'))\n        response.write(\'\\r\\n    \',escape=False)\n        pass\n    response.write(\'\\r\\n    \',escape=False)\n    if tabela == \'prova\':\n        response.write(\'\\r\\n        \',escape=False)\n        response.write(button(\'Lista Plano de Prova\',\'cadlist/plano_de_prova\'))\n        response.write(\'\\r\\n        \',escape=False)\n        response.write(button(\'Lista Professor\',\'cadlist/professor\'))\n        response.write(\'\\r\\n        \',escape=False)\n        response.write(button(\'Lista Turma\',\'cadlist/turma\'))\n        response.write(\'\\r\\n    \',escape=False)\n        pass\n    response.write(\'\\r\\n    \',escape=False)\n    if tabela == \'topico\':\n        response.write(\'\\r\\n        \',escape=False)\n        response.write(button(\'Lista Curso\',\'cadlist/curso\'))\n        response.write(\'\\r\\n        \',escape=False)\n        response.write(button(\'Lista Turma\',\'cadlist/turma\'))\n        response.write(\'\\r\\n        \',escape=False)\n        response.write(button(\'Lista Aloca\xc3\xa7\xc3\xa3o\',\'cadlist/alocacao\'))\n        response.write(\'\\r\\n        \',escape=False)\n        response.write(button(\'Lista Plano de Prova\',\'cadlist/plano_de_prova\'))\n        response.write(\'\\r\\n    \',escape=False)\n        pass\n    response.write(\'\\r\\n    \',escape=False)\n    if tabela == \'turma\':\n        response.write(\'\\r\\n        \',escape=False)\n        response.write(button(\'Lista Disciplina\',\'cadlist/disciplina\'))\n        response.write(\'\\r\\n        \',escape=False)\n        response.write(button(\'Lista Curso\',\'cadlist/curso\'))\n        response.write(\'\\r\\n        \',escape=False)\n        response.write(button(\'Lista Aloca\xc3\xa7\xc3\xa3o\',\'cadlist/alocacao\'))\n        response.write(\'\\r\\n    \',escape=False)\n        pass\n    response.write(\'\\r\\n    \',escape=False)\n    if tabela == \'curso\':\n        response.write(\'\\r\\n        \',escape=False)\n        response.write(button(\'Lista Instituicao\',\'cadlist/instituicao\'))\n        response.write(\'\\r\\n        \',escape=False)\n        response.write(button(\'Lista Disciplina\',\'cadlist/disciplina\'))\n        response.write(\'\\r\\n        \',escape=False)\n        response.write(button(\'Lista Turma\',\'cadlist/turma\'))\n        response.write(\'\\r\\n    \',escape=False)\n        pass\n    response.write(\'\\r\\n    \',escape=False)\n    if tabela == \'instituicao\':\n        response.write(\'\\r\\n        \',escape=False)\n        response.write(button(\'Lista Curso\',\'cadlist/curso\'))\n        response.write(\'\\r\\n    \',escape=False)\n        pass\n    response.write(\'\\r\\n    \',escape=False)\n    if tabela == \'usuario\':\n        response.write(\'\\r\\n        \',escape=False)\n        response.write(button(\'Lista Professor\',\'cadlist/professor\'))\n        response.write(\'\\r\\n        \',escape=False)\n        response.write(button(\'Lista Aluno\',\'cadlist/aluno\'))\n        response.write(\'\\r\\n    \',escape=False)\n        pass\n    response.write(\'\\r\\n    \',escape=False)\n    if tabela == \'dificuldade\':\n        response.write(\'\\r\\n        \',escape=False)\n        response.write(button(\'Lista Topico\',\'cadlist/topico\'))\n        response.write(\'\\r\\n        \',escape=False)\n        response.write(button(\'Lista Taxionomia\',\'cadlist/taxionomia\'))\n        response.write(\'\\r\\n        \',escape=False)\n        response.write(button(\'Lista Plano de Prova\',\'cadlist/plano_de_prova\'))\n        response.write(\'\\r\\n    \',escape=False)\n        pass\n    response.write(\'\\r\\n    \',escape=False)\n    if tabela == \'taxionomia\':\n        response.write(\'\\r\\n        \',escape=False)\n        response.write(button(\'Plano de Prova\',\'cadlist/Plano_de_Prova\'))\n        response.write(\'\\r\\n        \',escape=False)\n        response.write(button(\'Lista Plano de Prova\',\'cadlist/plano_de_prova\'))\n        response.write(\'\\r\\n    \',escape=False)\n        pass\n    response.write(\'\\r\\n    \',escape=False)\n    if tabela == \'questao\':\n        response.write(\'\\r\\n       \',escape=False)\n        response.write(button(\'Lista Prova\',\'cadlist/prova\'))\n        response.write(\'\\r\\n       \',escape=False)\n        response.write(button(\'Lista Plano de Prova\',\'cadlist/plano_de_prova\'))\n        response.write(\'\\r\\n       \',escape=False)\n        response.write(button(\'Lista Alternativa\',\'cadlist/alternativa\'))\n        response.write(\'\\r\\n    \',escape=False)\n        pass\n    response.write(\'\\r\\n    \',escape=False)\n    if request.args(1) != \'list\':\n        response.write(\'\\r\\n        <div id="form">\\r\\n        <h2>Novo Registro de \',escape=False)\n        response.write(tabela.replace(\'_\',\' \'))\n        response.write(\'</h2>\\r\\n        \',escape=False)\n        response.write(form)\n        response.write(\'\\r\\n        </div>\\r\\n    \',escape=False)\n        pass\n    response.write(\'\\r\\n\',escape=False)\nelse:\n    response.write(\'\\r\\n    <h2>Solicita\\xc3\\xa7\\xc3\\xa3o n\\xc3\\xa3o encontrada</h2>\\r\\n\',escape=False)\n    pass\nresponse.write(\'\\r\\n\\r\\n<br /><br />\\r\\n\\r\\n\',escape=False)\nif tabela == \'usuario\':\n    response.write(\'\\r\\n    \',escape=False)\n    flayout=1\n    response.write(\'\\r\\n    <table class="smarttable">\\r\\n    <thead>\\r\\n    <tr>\\r\\n    <th>Nome</th><th>Email</th><th>A\\xc3\\xa7\\xc3\\xa3o</th>\\r\\n    </tr>    \\r\\n    </thead>\\r\\n    <tbody>\\r\\n    \',escape=False)\n    for usuario in registros:\n        response.write(\'\\r\\n      <tr>\\r\\n      <td>\',escape=False)\n        response.write(usuario.first_name + \' \' + usuario.last_name)\n        response.write(\'</td>\\r\\n      <td>\',escape=False)\n        response.write(usuario.email)\n        response.write(\'</td>\\r\\n      <td>\',escape=False)\n        response.write(button(\'Alterar\',\'edit/auth_user\',usuario.id))\n        response.write(\'</td>\\r\\n    \',escape=False)\n        pass\n    response.write(\'\\r\\n    </tbody>\\r\\n    </table>\\r\\n\',escape=False)\n    pass\nresponse.write(\'\\r\\n\\r\\n\',escape=False)\nif tabela == \'aluno\':\n    response.write(\'\\r\\n    \',escape=False)\n    flayout=1\n    response.write(\'\\r\\n    <table class="smarttable">\\r\\n    <thead>\\r\\n    <tr>\\r\\n    <th>Matr\\xc3\\xadcula</th><th>Nome</th><th>Email</th><th>A\\xc3\\xa7\\xc3\\xa3o</th>\\r\\n    </tr>    \\r\\n    </thead>\\r\\n    <tbody>\\r\\n    \',escape=False)\n    for aluno in registros:\n        response.write(\'\\r\\n        <tr>\\r\\n        <td>\',escape=False)\n        response.write(A(aluno.aluno.matricula,_href=url(\'cadlist/aluno\',aluno.aluno.id)))\n        response.write(\'</td>\\r\\n        <td>\',escape=False)\n        response.write(aluno.auth_user.first_name + \' \' + aluno.auth_user.last_name)\n        response.write(\'</td>\\r\\n        <td>\',escape=False)\n        response.write(aluno.auth_user.email)\n        response.write(\'</td>\\r\\n        <td>\',escape=False)\n        response.write(button(\'Alterar\',\'edit/aluno\',aluno.aluno.id))\n        response.write(\'</td>\\r\\n        </tr>\\r\\n    \',escape=False)\n        pass\n    response.write(\'\\r\\n    </tbody>\\r\\n    </table>\\r\\n\',escape=False)\n    pass\nresponse.write(\'\\r\\n\\r\\n\',escape=False)\nif tabela == \'professor\':\n    response.write(\'\\r\\n    \',escape=False)\n    flayout=1\n    response.write(\'\\r\\n    <table class="smarttable">\\r\\n    <thead>\\r\\n    <tr>\\r\\n    <th>Cod. func.</th><th>Nome</th><th>Email</th><th>A\\xc3\\xa7\\xc3\\xa3o</th>\\r\\n    </tr>    \\r\\n    </thead>\\r\\n    <tbody>\\r\\n    \',escape=False)\n    for professor in registros:\n        response.write(\'\\r\\n        <tr>\\r\\n        <td>\',escape=False)\n        response.write(A(professor.professor.codigo_funcional,_href=url(\'cadlist/professor\',professor.professor.id)))\n        response.write(\'</td>\\r\\n        <td>\',escape=False)\n        response.write(professor.auth_user.first_name + \' \' + professor.auth_user.last_name)\n        response.write(\'</td>\\r\\n        <td>\',escape=False)\n        response.write(professor.auth_user.email)\n        response.write(\'</td>\\r\\n        <td>\',escape=False)\n        response.write(button(\'Alterar\',\'edit/professor\',professor.professor.id))\n        response.write(\'</td>\\r\\n        </tr>\\r\\n    \',escape=False)\n        pass\n    response.write(\'\\r\\n    </tbody>\\r\\n    </table>\\r\\n\',escape=False)\n    pass\nresponse.write(\'\\r\\n\\r\\n\',escape=False)\nif tabela == \'alocacao\':\n    response.write(\'\\r\\n    \',escape=False)\n    flayout=1\n    response.write(\'\\r\\n    <table border=1 class="smarttable">\\r\\n    <thead>\\r\\n    <tr><th colspan=4>[ Aloca\\xc3\\xa7\\xc3\\xa3o ]</th></tr>\\r\\n    <tr>\\r\\n    <th>Nome</th><th>Matr\\xc3\\xadcula</th><th>Turma</th><th>Data</th><th>A\\xc3\\xa7\\xc3\\xa3o</th>\\r\\n    </tr>\\r\\n    </thead>\\r\\n    <tbody>\\r\\n    \',escape=False)\n    for alocacao in registros:\n        response.write(\'\\r\\n        <tr>\\r\\n        <td>\',escape=False)\n        response.write(alocacao.alocacao.aluno.usuario.first_name + \' \' + alocacao.alocacao.aluno.usuario.last_name)\n        response.write(\'</td>\\r\\n        <td>\',escape=False)\n        response.write(alocacao.alocacao.aluno.matricula)\n        response.write(\'</td>\\r\\n        <td>\',escape=False)\n        response.write(alocacao.alocacao.turma.nome)\n        response.write(\'</td>\\r\\n        <td>\',escape=False)\n        response.write(alocacao.alocacao.data)\n        response.write(\'</td>\\r\\n        <td>\',escape=False)\n        response.write(button(\'Alterar\',\'edit/alocacao\',alocacao.alocacao.id))\n        response.write(\'</td>\\r\\n        </tr>\\r\\n    \',escape=False)\n        pass\n    response.write(\'\\r\\n    </tbody>\\r\\n    </table>\\r\\n    <table border=1 class="smarttable">\\r\\n    <thead>\\r\\n    <tr><th colspan=4>[Alunos N\\xc3\\x83O Alocados a Turma]</th></tr>\\r\\n    <tr>\\r\\n    <th>Nome</th><th>Matricula</th><th>A\\xc3\\xa7\\xc3\\xa3o</th>\\r\\n    </tr>\\r\\n    </thead>\\r\\n    <tbody>\\r\\n    \',escape=False)\n    for aluno in list_alunos:\n        response.write(\'\\r\\n        <tr>\\r\\n        <td>\',escape=False)\n        response.write(aluno.auth_user.first_name + \' \' + aluno.auth_user.last_name)\n        response.write(\'</td>\\r\\n        <td>\',escape=False)\n        response.write(aluno.aluno.matricula)\n        response.write(\'</td>\\r\\n        <td>\',escape=False)\n        response.write(button(\'Alterar\',\'edit/aluno\',aluno.aluno.id))\n        response.write(\'</td>\\r\\n        </tr>\\r\\n    \',escape=False)\n        pass\n    response.write(\'\\r\\n    </tbody>\\r\\n    </table>\\r\\n    <table border=1 class="smarttable">\\r\\n    <thead>\\r\\n    <tr><th colspan=4>[TURMAS]</th></tr>\\r\\n    <tr>\\r\\n    <th>Disciplina</th><th>Nome</th><th>A\\xc3\\xa7\\xc3\\xa3o</th>\\r\\n    </tr>  \\r\\n    </thead> \\r\\n    <tbody>\\r\\n    \',escape=False)\n    for turma in list_turmas:\n        response.write(\'\\r\\n        <tr>\\r\\n        <td>\',escape=False)\n        response.write(turma.disciplina.nome)\n        response.write(\'</td>\\r\\n        <td>\',escape=False)\n        response.write(turma.turma.nome)\n        response.write(\'</td>\\r\\n        <td>\',escape=False)\n        response.write(button(\'Alterar\',\'edit/turma\',turma.turma.id))\n        response.write(\'</td>\\r\\n        </tr>\\r\\n    \',escape=False)\n        pass\n    response.write(\'\\r\\n    </tbody>\\r\\n    </table>\\r\\n\',escape=False)\n    pass\nresponse.write(\'\\r\\n\\r\\n\',escape=False)\nif tabela == \'disciplina\':\n    response.write(\'\\r\\n    \',escape=False)\n    flayout=1\n    response.write(\'\\r\\n    <table class="smarttable">\\r\\n    <thead>\\r\\n    <tr>\\r\\n    <th>Disciplina</th><th>Curso</th><th>Ac\\xc3\\xa3o</th>\\r\\n    </tr>\\r\\n    </thead>\\r\\n    <tbody>\\r\\n    \',escape=False)\n    for disciplina in registros:\n        response.write(\'\\r\\n        <tr>\\r\\n        <td>\',escape=False)\n        response.write(A(disciplina.disciplina.nome,_href=url(\'edit/disciplina\',disciplina.disciplina.id)))\n        response.write(\'</td>\\r\\n        <td>\',escape=False)\n        response.write(A(disciplina.curso.nome,_href=url(\'edit/curso\',disciplina.curso.id)))\n        response.write(\'</td>\\r\\n        <td>\',escape=False)\n        response.write(button(\'Alterar\',\'edit/disciplina\',disciplina.disciplina.id))\n        response.write(\'</td>\\r\\n        </tr>\\r\\n    \',escape=False)\n        pass\n    response.write(\'\\r\\n    </tbody>\\r\\n    </table>\\r\\n\',escape=False)\n    pass\nresponse.write(\'\\r\\n\\r\\n\',escape=False)\nif tabela == \'plano_de_prova\':\n    response.write(\'\\r\\n    \',escape=False)\n    flayout=1\n    response.write(\'\\r\\n    <table class="smarttable">\\r\\n    <thead>\\r\\n    <tr>\\r\\n    <th>Refer\\xc3\\xaancia</th><th>Professor</th><th>A\\xc3\\xa7\\xc3\\xa3o</th>\\r\\n    </tr>\\r\\n    </thead>\\r\\n    <tbody>\\r\\n    \',escape=False)\n    for planodeprova in registros:\n        response.write(\'\\r\\n        <tr>\\r\\n        <td>\',escape=False)\n        response.write(A(planodeprova.referencia,_href=url(\'cadlist/item_plano_de_prova\',planodeprova.id)))\n        response.write(\'</td>\\r\\n        <td>\',escape=False)\n        response.write(planodeprova.professor.usuario.first_name + \' \' + planodeprova.professor.usuario.last_name)\n        response.write(\'</td>\\r\\n        <td>\',escape=False)\n        response.write(button(\'Alterar\',\'edit/plano_de_prova\',planodeprova.id))\n        response.write(\'</td>\\r\\n        </tr>\\r\\n    \',escape=False)\n        pass\n    response.write(\'\\r\\n    </tbody>\\r\\n    </table>\\r\\n\',escape=False)\n    pass\nresponse.write(\'\\r\\n\\r\\n\',escape=False)\nif tabela == \'item_plano_de_prova\':\n    response.write(\'\\r\\n    \',escape=False)\n    flayout=1\n    response.write(\'\\r\\n    <table class="smarttable">\\r\\n    <thead>\\r\\n    <tr>\\r\\n    <th>Refer\\xc3\\xaancia</th><th>Valor</th><th>Topico</th><th>Taxionomia</th><th>dificuldade</th><th>A\\xc3\\xa7\\xc3\\xa3o</th>\\r\\n    </tr>\\r\\n    </thead>\\r\\n    <tbody>\\r\\n    \',escape=False)\n    TOT=0\n    response.write(\'\\r\\n    \',escape=False)\n    TOT2=0\n    response.write(\'\\r\\n    \',escape=False)\n    ref1=\'\'\n    response.write(\'\\r\\n    \',escape=False)\n    flagv=0\n    response.write(\'\\r\\n    \',escape=False)\n    for planodeprova in registros:\n        response.write(\'\\r\\n        \',escape=False)\n        if flagv==0:\n            response.write(\'\\r\\n          \',escape=False)\n            ref1=ref2=planodeprova.plano_de_prova.referencia\n            response.write(\'\\r\\n          \',escape=False)\n            flagv=1\n            response.write(\'\\r\\n        \',escape=False)\n            pass\n        response.write(\'\\r\\n        <tr>\\r\\n        <td>\',escape=False)\n        response.write(A(planodeprova.plano_de_prova.referencia,_href=url(\'cadlist/plano_de_prova\',planodeprova.plano_de_prova)))\n        response.write(\'</td>\\r\\n        <td>\',escape=False)\n        response.write(planodeprova.valor)\n        response.write(\'</td>\\r\\n        <td>\',escape=False)\n        response.write(planodeprova.topico.nome)\n        response.write(\'</td>\\r\\n        <td>\',escape=False)\n        response.write(planodeprova.taxionomia.nome)\n        response.write(\'</td>\\r\\n        <td>\',escape=False)\n        response.write(planodeprova.dificuldade.nivel)\n        response.write(\'</td>\\r\\n        <td>\',escape=False)\n        response.write(button(\'Alterar\',\'edit/item_plano_de_prova\',planodeprova.id))\n        response.write(\'</td>\\r\\n        </tr>\\r\\n        \',escape=False)\n        if planodeprova.plano_de_prova.referencia == ref1:\n            response.write(\'\\r\\n             \',escape=False)\n            TOT=TOT + TOT2 + planodeprova.valor\n            response.write(\'\\r\\n             \',escape=False)\n            TOT2=0\n            response.write(\'\\r\\n        \',escape=False)\n        else:\n            response.write(\'\\r\\n             <tr><td>\',escape=False)\n            response.write(ref1)\n            response.write(\'</td><td>\',escape=False)\n            response.write(TOT)\n            response.write(\'</td><td><b><= Valor Total</b></td></tr>\\r\\n             \',escape=False)\n            ref1=planodeprova.plano_de_prova.referencia\n            response.write(\'\\r\\n             \',escape=False)\n            TOT2=TOT2 + planodeprova.valor\n            response.write(\'\\r\\n             \',escape=False)\n            TOT=0\n            response.write(\'\\r\\n        \',escape=False)\n            pass\n        response.write(\'\\r\\n    \',escape=False)\n        pass\n    response.write(\'\\r\\n    <tr><td>\',escape=False)\n    response.write(ref1)\n    response.write(\'</td><td>\',escape=False)\n    response.write(TOT2 + TOT)\n    response.write(\'</td><td><b><= Valor Total</b></td></tr>\\r\\n    </tbody>\\r\\n    </table>\\r\\n\',escape=False)\n    pass\nresponse.write(\'\\r\\n\\r\\n\',escape=False)\nif tabela == \'prova\':\n    response.write(\'\\r\\n    \',escape=False)\n    flayout=1\n    response.write(\'\\r\\n    <table border=1 class="smarttable">\\r\\n    <thead>\\r\\n    <tr><th colspan=4>[ Prova ]</th></tr>\\r\\n    <tr>\\r\\n    <th>Refer\\xc3\\xaancia</th><th>Turma</th><th>Plano de Prova</th><th>Tipo</th><th>A\\xc3\\xa7\\xc3\\xa3o</th>\\r\\n    </tr>\\r\\n    </thead>\\r\\n    <tbody>\\r\\n    \',escape=False)\n    for prova in registros:\n        response.write(\'\\r\\n        <tr>\\r\\n        <td>\',escape=False)\n        response.write(prova.referencia )\n        response.write(\'</td>\\r\\n        <td>\',escape=False)\n        response.write(prova.turma.nome)\n        response.write(\'</td>\\r\\n        <td>\',escape=False)\n        response.write(prova.plano_de_prova.referencia)\n        response.write(\'</td>\\r\\n        <td>\',escape=False)\n        response.write(prova.tipo)\n        response.write(\'</td>\\r\\n        <td>\',escape=False)\n        response.write(button(\'Alterar\',\'edit/prova\',prova.id))\n        response.write(\'</td>\\r\\n        </tr>\\r\\n    \',escape=False)\n        pass\n    response.write(\'\\r\\n    </tbody>\\r\\n    </table>\\r\\n    <table border=1 class="smarttable">\\r\\n    <thead>\\r\\n    <tr><th colspan=2>[ TURMA ]</th></tr>\\r\\n    <tr>\\r\\n    <th>Turma</th><th>A\\xc3\\xa7\\xc3\\xa3o</th>\\r\\n    </tr>\\r\\n    </thead>\\r\\n    <tbody>\\r\\n    \',escape=False)\n    for turma in turmas:\n        response.write(\'\\r\\n        <tr>\\r\\n        <td>\',escape=False)\n        response.write(A(turma.nome,_href=url(\'cadlist/turma\',turma.id)))\n        response.write(\'</td>\\r\\n        <td>\',escape=False)\n        response.write(button(\'Alterar\',\'edit/turma\',turma.id))\n        response.write(\'</td>\\r\\n        </tr>\\r\\n    \',escape=False)\n        pass\n    response.write(\'\\r\\n    </tbody>\\r\\n    </table>\\r\\n\',escape=False)\n    pass\nresponse.write(\'\\r\\n\\r\\n\',escape=False)\nif tabela == \'turma\':\n    response.write(\'\\r\\n    \',escape=False)\n    flayout=1\n    response.write(\'\\r\\n    <table class="smarttable">\\r\\n    <thead>\\r\\n    <tr>\\r\\n    <th>Turma</th><th>Turno</th><th>Disciplina</th><th>A\\xc3\\xa7\\xc3\\xa3o</th>\\r\\n    </tr>    \\r\\n    </thead>\\r\\n    <tbody>\\r\\n    \',escape=False)\n    for turma in registros:\n        response.write(\'\\r\\n      <tr>\\r\\n      <td>\',escape=False)\n        response.write(A(turma.turma.nome,_href=url(\'cadlist/turma\',turma.turma.id)))\n        response.write(\'</td>\\r\\n      <td>\',escape=False)\n        response.write(turma.turma.turno)\n        response.write(\'</td>\\r\\n      <td>\',escape=False)\n        response.write(A(turma.disciplina.nome,_href=url(\'cadlist/disciplina\',turma.disciplina.id)))\n        response.write(\'</td>\\r\\n      <td>\',escape=False)\n        response.write(button(\'Alterar\',\'edit/turma\',turma.turma.id))\n        response.write(\'</td></tr>\\r\\n   \',escape=False)\n        pass\n    response.write(\'\\r\\n   </tbody>\\r\\n   </table>\\r\\n\',escape=False)\n    pass\nresponse.write(\'\\r\\n\\r\\n\',escape=False)\nif tabela == \'instituicao\':\n    response.write(\'\\r\\n    \',escape=False)\n    flayout=1\n    response.write(\'\\r\\n    <table class="smarttable">\\r\\n    <thead>\\r\\n    <tr>\\r\\n    <th>Nome</th><th>A\\xc3\\xa7\\xc3\\xa3o</th>\\r\\n    </tr>    \\r\\n    </thead>\\r\\n    <tbody>\\r\\n    \',escape=False)\n    for instituicao in registros:\n        response.write(\'\\r\\n      <tr>\\r\\n      <td>\',escape=False)\n        response.write(A(instituicao.nome,_href=url(\'cadlist/instituicao\',instituicao.id)))\n        response.write(\'</td>\\r\\n      <td>\',escape=False)\n        response.write(button(\'Alterar\',\'edit/instituicao\',instituicao.id))\n        response.write(\'</td>\\r\\n      </tr>\\r\\n    \',escape=False)\n        pass\n    response.write(\'\\r\\n    </tbody>\\r\\n    </table>\\r\\n\',escape=False)\n    pass\nresponse.write(\'\\r\\n\\r\\n\',escape=False)\nif tabela == \'curso\':\n    response.write(\'\\r\\n    \',escape=False)\n    flayout=1\n    response.write(\'\\r\\n    <table class="smarttable">\\r\\n    <thead>\\r\\n    <tr>\\r\\n    <th>Curso</th><th>Instituic\\xc3\\xa3o</th><th>A\\xc3\\xa7\\xc3\\xa3o</th>\\r\\n    </tr>    \\r\\n    </thead>\\r\\n    <tbody>\\r\\n    \',escape=False)\n    for curso in registros:\n        response.write(\'\\r\\n      <tr>\\r\\n      <td>\',escape=False)\n        response.write(A(curso.nome,_href=url(\'edit/curso\',curso.id)))\n        response.write(\'</td>\\r\\n      <td>\',escape=False)\n        response.write(A(curso.instituicao.nome,_href=url(\'edit/instituicao\',curso.instituicao.id)))\n        response.write(\'</td>\\r\\n      <td>\',escape=False)\n        response.write(button(\'Alterar\',\'edit/curso\',curso.id))\n        response.write(\'</td>\\r\\n    \',escape=False)\n        pass\n    response.write(\'\\r\\n    </tbody>\\r\\n    </table>\\r\\n\',escape=False)\n    pass\nresponse.write(\'\\r\\n\\r\\n\\r\\n\',escape=False)\nif tabela == \'dificuldade\':\n    response.write(\'\\r\\n    \',escape=False)\n    flayout=1\n    response.write(\'\\r\\n    <table class="smarttable">\\r\\n    <thead>\\r\\n    <tr>\\r\\n    <th>N\\xc3\\xadvel de Dificuldade</th><th>A\\xc3\\xa7\\xc3\\xa3o</th>\\r\\n    </tr>    \\r\\n    </thead>\\r\\n    <tbody>\\r\\n    \',escape=False)\n    for dificuldade in registros:\n        response.write(\'\\r\\n      <tr>\\r\\n      <td>\',escape=False)\n        response.write(A(dificuldade.nivel,_href=url(\'cadlist/curso\',dificuldade.id)))\n        response.write(\'</td>\\r\\n      <td>\',escape=False)\n        response.write(button(\'Alterar\',\'edit/dificuldade\',dificuldade.id))\n        response.write(\'</td></tr>\\r\\n   \',escape=False)\n        pass\n    response.write(\'\\r\\n   \\r\\n</tbody>\\r\\n</table>\\r\\n\',escape=False)\n    pass\nresponse.write(\'\\r\\n\\r\\n\',escape=False)\nif tabela == \'topico\':\n    response.write(\'\\r\\n    \',escape=False)\n    flayout=1\n    response.write(\'\\r\\n   <table class="smarttable">\\r\\n   <thead>\\r\\n   <tr>\\r\\n   <th>T\\xc3\\xb3pico</th><th>A\\xc3\\xa7\\xc3\\xa3o</th>\\r\\n   </tr>    \\r\\n   </thead>\\r\\n   <tbody>\\r\\n   \',escape=False)\n    for topico in registros:\n        response.write(\'\\r\\n      <tr>\\r\\n      <td>\',escape=False)\n        response.write(A(topico.nome,_href=url(\'cadlist/topico\',topico.id)))\n        response.write(\'</td>\\r\\n      <td>\',escape=False)\n        response.write(button(\'Alterar\',\'edit/topico\',topico.id))\n        response.write(\'</td></tr>\\r\\n   \',escape=False)\n        pass\n    response.write(\'\\r\\n</tbody>\\r\\n</table>\\r\\n\',escape=False)\n    pass\nresponse.write(\'\\r\\n\\r\\n\',escape=False)\nif tabela == \'taxionomia\':\n    response.write(\'\\r\\n   \',escape=False)\n    flayout=1\n    response.write(\'\\r\\n   <table class="smarttable">\\r\\n   <thead>\\r\\n   <tr>\\r\\n   <th>Nome</th><th>A\\xc3\\xa7\\xc3\\xa3o</th>\\r\\n   </tr>    \\r\\n   </thead>\\r\\n   <tbody>\\r\\n   \',escape=False)\n    for taxionomia in registros:\n        response.write(\'\\r\\n      <tr>\\r\\n      <td>\',escape=False)\n        response.write(A(taxionomia.nome,_href=url(\'cadlist/taxionomia\',taxionomia.nome)))\n        response.write(\'</td>   \\r\\n      <td>\',escape=False)\n        response.write(button(\'Alterar\',\'edit/taxionomia\',taxionomia.id))\n        response.write(\'</td>\\r\\n      </tr>\\r\\n   \',escape=False)\n        pass\n    response.write(\'\\r\\n   </tbody>\\r\\n   </table>\\r\\n\',escape=False)\n    pass\nresponse.write(\'\\r\\n\\r\\n\',escape=False)\nif tabela == \'questao\':\n    response.write(\'\\r\\n     \',escape=False)\n    flayout=1\n    response.write(\'\\r\\n     <table class="smarttable">\\r\\n     <thead>\\r\\n    <tr>\\r\\n       <th>Enunciado</th><th>T\\xc3\\xb3pico</th><th>Taxionomia</th><th>Dificuldade</th><th>Resposta</th><th>Correta</th><th>Ac\\xc3\\xa3o</th>\\r\\n    </tr>    \\r\\n    </thead>\\r\\n    <tbody>\\r\\n    \',escape=False)\n    for questao in registros:\n        response.write(\'\\r\\n      <tr>\\r\\n      <td>\',escape=False)\n        response.write(questao.questao.enunciado)\n        response.write(\'</td>\\r\\n      <td>\',escape=False)\n        response.write(questao.questao.topico.nome)\n        response.write(\'</td>\\r\\n      <td>\',escape=False)\n        response.write(questao.questao.taxionomia.nome)\n        response.write(\'</td>\\r\\n      <td>\',escape=False)\n        response.write(questao.questao.dificuldade.nivel)\n        response.write(\'</td>\\r\\n      <td>\',escape=False)\n        response.write(questao.alternativa.resposta)\n        response.write(\'</td>\\r\\n      <td>\',escape=False)\n        response.write(questao.alternativa.correta)\n        response.write(\'</td>\\r\\n      <td>\',escape=False)\n        response.write(button(\'Alterar\',\'edit/questao\',questao.questao.id))\n        response.write(\'</td>\\r\\n      </tr>\\r\\n   \',escape=False)\n        pass\n    response.write(\'\\r\\n</tbody>\\r\\n</table>\\r\\n\',escape=False)\n    pass\nresponse.write(\'\\r\\n\\r\\n\',escape=False)\nif tabela == \'alternativa\':\n    response.write(\'\\r\\n     \',escape=False)\n    flayout=1\n    response.write(\'\\r\\n     <table class="smarttable">\\r\\n     <thead>\\r\\n    <tr>\\r\\n       <th>Enunciado</th><th>Resposta</th><th>Correta</th><th>Ac\\xc3\\xa3o</th>\\r\\n    </tr>    \\r\\n    </thead>\\r\\n    <tbody>\\r\\n    \',escape=False)\n    for alternativa in registros:\n        response.write(\'\\r\\n      <tr>\\r\\n      <td>\',escape=False)\n        response.write(alternativa.questao.enunciado)\n        response.write(\'</td>\\r\\n      <td>\',escape=False)\n        response.write(alternativa.resposta)\n        response.write(\'</td>\\r\\n      <td>\',escape=False)\n        response.write(T(alternativa.correta))\n        response.write(\'</td>\\r\\n      <td>\',escape=False)\n        response.write(button(\'Alterar\',\'edit/alternativa\',alternativa.id))\n        response.write(\'</td>\\r\\n      </tr>\\r\\n   \',escape=False)\n        pass\n    response.write(\'\\r\\n</tbody>\\r\\n</table>\\r\\n\',escape=False)\n    pass\nresponse.write(\'\\r\\n\\r\\n\',escape=False)\nif tabela == \'prova_aplicada\':\n    response.write(\'\\r\\n     \',escape=False)\n    flayout=1\n    response.write(\'\\r\\n     <table class="smarttable">\\r\\n     <thead>\\r\\n    <tr>\\r\\n       <th>Turma</th><th>Prova</th><th>Plano de Prova</th><th>Data</th><th>Ac\\xc3\\xa3o</th>\\r\\n    </tr>    \\r\\n    </thead>\\r\\n    <tbody>\\r\\n    \',escape=False)\n    for prova_aplicada in registros:\n        response.write(\'\\r\\n      <tr>\\r\\n      <td>\',escape=False)\n        response.write(prova_aplicada.prova.turma.nome)\n        response.write(\'</td>\\r\\n      <td>\',escape=False)\n        response.write(prova_aplicada.prova.tipo)\n        response.write(\'</td>\\r\\n      <td>\',escape=False)\n        response.write(prova_aplicada.prova.plano_de_prova.referencia))\n        response.write(\'</td>\\r\\n      <td>\',escape=False)\n        response.write(prova_aplicada.data))\n        response.write(\'</td>\\r\\n      <td>\',escape=False)\n        response.write(button(\'Alterar\',\'edit/prova_aplicada\',alternativa.id))\n        response.write(\'</td>\\r\\n      </tr>\\r\\n   \',escape=False)\n        pass\n    response.write(\'\\r\\n</tbody>\\r\\n</table>\\r\\n\',escape=False)\n    pass\nresponse.write(\'\\r\\n\\r\\n\',escape=False)\nif flayout == 0:\n    response.write(\'\\r\\n    <table class="smarttable">\\r\\n    <tbody>\\r\\n    \',escape=False)\n    response.write(registros)\n    response.write(\'\\r\\n    </tbody>\\r\\n    </table>\\r\\n\',escape=False)\n    pass\nresponse.write(\'\\r\\n\\r\\n          </td>\\r\\n          <!--\\r\\n               <td class="width10em column3">\\r\\n                 <h2>Right Column</h2>\\r\\n               </td>\\r\\n          //-->\\r\\n        </tr>\\r\\n        <tr>\\r\\n          <td colspan="10" class="footer">\\r\\n            <p>\\r\\n            Site de Estudo desenvolvido por: Jos\\xc3\\xa9 Roberto, Vagton Alves Ferreira. Todos os direitos reservados.\\r\\n            </p>\\r\\n          </td>\\r\\n        </tr>\\r\\n      </table>\\r\\n    </div>\\r\\n  </body>\\r\\n</html>\\r\\n\',escape=False)'
p6
sS'traceback'
p7
S'Traceback (most recent call last):\n  File "C:\\cefet\\2009.2,2010.1\\LocalHostWeb2Py\\cefet-mestre\\web2py\\gluon\\restricted.py", line 171, in restricted\n    ccode = compile(code.replace(\'\\r\\n\', \'\\n\'), layer, \'exec\')\n  File "C:\\cefet\\2009.2,2010.1\\LocalHostWeb2Py\\cefet-mestre\\web2py\\applications\\Mestre/views/mcrud/cadlist.html", line 608\n    response.write(prova_aplicada.prova.plano_de_prova.referencia))\n                                                                  ^\nSyntaxError: invalid syntax\n'
p8
s.