(dp1
S'output'
p2
S''
sS'layer'
p3
S'D:\\python26\\web2py\\applications\\Mestre/models/db.py'
p4
sS'code'
p5
S"# coding: utf8\n\n#########################################################################\n## This scaffolding model makes your app work on Google App Engine too\n#########################################################################\n\nimport os, traceback, datetime\n\ntry:\n    from gluon.contrib.gql import *         # if running on Google App Engine\nexcept:\n    db=SQLDB('sqlite://storage.db')         # if not, use SQLite or other DB\n    #db = DAL('mysql://admin:010101@localhost:3306/mestre')  # if not, use SQLite or other DB\nelse:\n    db=GQLDB()                              # connect to Google BigTable\n    session.connect(request,response,db=db) # and store sessions there\n\n\n#########################################################################\n## Here is sample code if you need for \n## - email capabilities\n## - authentication (registration, login, logout, ... )\n## - authorization (role based authorization)\n## - services (xml, csv, json, xmlrpc, jsonrpc, amf, rss)\n## - crud actions\n## comment/uncomment as needed\n\nfrom gluon.tools import *\nauth=Auth(globals(),db)                      # authentication/authorization\nauth.settings.hmac_key='sha512:f97d3f0c-b0da-4d3e-b49c-a7af7b397e1b'\nauth.define_tables()                         # creates all needed tables\ncrud=Crud(globals(),db)                      # for CRUD helpers using auth\nservice=Service(globals())                   # for json, xml, jsonrpc, xmlrpc, amfrpc\n\n# crud.settings.auth=auth                      # enforces authorization on crud\n# mail=Mail()                                  # mailer\n# mail.settings.server='smtp.gmail.com:587'    # your SMTP server\n# mail.settings.sender='you@gmail.com'         # your email\n# mail.settings.login='username:password'      # your credentials or None\n# auth.settings.mailer=mail                    # for user email verification\n# auth.settings.registration_requires_verification = True\n# auth.settings.registration_requires_approval = True\n# auth.messages.verify_email = \\\n#  'Click on the link http://.../user/verify_email/%(key)s to verify your email'\n## more options discussed in gluon/tools.py\n#########################################################################\n\n#########################################################################\n## Define your tables below, for example\n##\n## >>> db.define_table('mytable',Field('myfield','string'))\n##\n## Fields can be 'string','text','password','integer','double','boolean'\n##       'date','time','datetime','blob','upload', 'reference TABLENAME'\n## There is an implicit 'id integer autoincrement' field\n## Consult manual for more options, validators, etc.\n##\n## More API examples for controllers:\n##\n## >>> db.mytable.insert(myfield='value')\n## >>> rows=db(db.mytable.myfield=='value').select(db.mytable.ALL)\n## >>> for row in rows: print row.id, row.myfield\n#########################################################################\n"
p6
sS'traceback'
p7
S'Traceback (most recent call last):\n  File "D:\\python26\\web2py\\gluon\\restricted.py", line 173, in restricted\n    exec ccode in environment\n  File "D:\\python26\\web2py\\applications\\Mestre/models/db.py", line 31, in <module>\n    auth.define_tables()                         # creates all needed tables\n  File "D:\\python26\\web2py\\gluon\\tools.py", line 797, in define_tables\n    format=\'%(first_name)s %(last_name)s (%(id)s)\')\n  File "D:\\python26\\web2py\\gluon\\sql.py", line 1275, in define_table\n    t._create(migrate=migrate, fake_migrate=fake_migrate)\n  File "D:\\python26\\web2py\\gluon\\sql.py", line 1694, in _create\n    self._db._execute(query)\n  File "D:\\python26\\web2py\\gluon\\sql.py", line 895, in <lambda>\n    self._execute = lambda *a, **b: self._cursor.execute(*a, **b)\nOperationalError: table auth_user already exists\n'
p8
s.