(dp1
S'output'
p2
S''
sS'layer'
p3
S'D:\\cefet\\2009.2, 2010.1\\LocalHostWeb2Py\\MESTRE-20100223\\web2py\\applications\\Mestre/controllers/alocacao.py'
p4
sS'code'
p5
S"# coding: utf8\n# try something like\n\n@auth.requires_login() \ndef list_alocacoes():\n  row_professor=db(db.professor.usuario==auth.user.id).select(db.professor.ALL)\n  if row_professor:  \n    form = SQLFORM(db.alocacao)\n    if form.accepts(request.vars,session): \n            redirect(URL(r=request,f='list_alocacoes'))\n    elif form.errors: response.flash='Erro em seu formul\xc3\xa1rio'\n    list_alunos=db(db.aluno.id is !db.alocacao.aluno).select(\n          db.aluno.ALL,\n          db.auth_user.ALL,\n          left=db.auth_user.on(db.aluno.usuario==db.auth_user.id)\n          )\n    \n    list_turmas=db(db.turma.id>0).select(db.turma.ALL,db.disciplina.ALL,left=db.disciplina.on(db.turma.disciplina==db.disciplina.id))\n    list_alocados=db(db.aluno.id>0).select(\n          db.alocacao.ALL,\n          db.auth_user.ALL,\n          left=db.auth_user.on(db.alocacao.aluno==db.auth_user.id),distinct=True\n          )\n    return dict(form=form,list_alunos=list_alunos,list_turmas=list_turmas,list_alocados=list_alocados)\n  else:\n    redirect(URL(r=request,f='../default/erro_acesso'))\n\n@auth.requires_login()   \ndef ver_alocacao():\n    row_alocacao=db().select(db.alocacao.ALL)\n    return dict(row_alocacao=row_alocacao)\n\n@auth.requires_login()   \ndef cad_alocacao():\n  row_professor=db(db.professor.usuario==auth.user.id).select(db.professor.ALL)\n  if row_professor:  \n    alocacao = SQLFORM(db.alocacao)\n    if alocacao.accepts(request.vars,session):\n            redirect(URL(r=request,f='list_alocacoes'))\n    if alocacao.errors: response.flash='Erro em seu formul\xc3\xa1rio'\n    return dict(alocacao=alocacao)\n  else:\n    redirect(URL(r=request,f='../default/erro_acesso'))\n    \n@auth.requires_login()\ndef edit_alocacao():\n   alocacao_id=request.args(0)\n   alocacao=db.alocacao[alocacao_id] or redirect(URL(r=request,f='../default/error'))\n   form=crud.update(db.alocacao,alocacao,next=url('list_alocacoes'))\n   return dict(form=form)\n\nresponse._vars=response._caller(list_alocacoes)\n"
p6
sS'traceback'
p7
S'Traceback (most recent call last):\n  File "D:\\cefet\\2009.2, 2010.1\\LocalHostWeb2Py\\MESTRE-20100223\\web2py\\gluon\\restricted.py", line 171, in restricted\n    ccode = compile(code.replace(\'\\r\\n\', \'\\n\'), layer, \'exec\')\n  File "D:\\cefet\\2009.2, 2010.1\\LocalHostWeb2Py\\MESTRE-20100223\\web2py\\applications\\Mestre/controllers/alocacao.py", line 12\n    list_alunos=db(db.aluno.id is !db.alocacao.aluno).select(\n                                  ^\nSyntaxError: invalid syntax\n'
p8
s.