(dp1
S'output'
p2
S''
sS'layer'
p3
S'D:\\cefet\\2009.2, 2010.1\\LocalHostWeb2Py\\MESTRE-20100227\\web2py\\applications\\Mestre/controllers/mcrud.py'
p4
sS'code'
p5
S"# coding: utf8\n# try something like\n\n\n@auth.requires_login()\ndef list():\n    tabela=request.args(0) or redirect(URL(r=request,f='../default/error'))\n    try:\n        form=crud.create(db[tabela])\n    except KeyError, NameError:\n        response.flash='Tabela Inexistente!'\n        return dict(registros='N\xc3\xa3o posso listar esta tabela!')   \n    registros=db().select(db[tabela].ALL)\n    response.flash='Lista ' + tabela\n    return dict(registros=registros,form=form)\n\n@auth.requires_login()\ndef edit():\n   tabela=request.args(0) or redirect(URL(r=request,f='../default/error'))\n   registro_id=request.args(1) or redirect(URL(r=request,f='../default/error'))\n   registros=db(tabela).[registro_id] or redirect(URL(r=request,f='../default/error'))\n   form=crud.update(db[tabela],tabela,next=url('list_' + tabela))\n   return dict(form=form)\n\nresponse._vars=response._caller(edit)\n"
p6
sS'traceback'
p7
S'Traceback (most recent call last):\n  File "D:\\cefet\\2009.2, 2010.1\\LocalHostWeb2Py\\MESTRE-20100227\\web2py\\gluon\\restricted.py", line 171, in restricted\n    ccode = compile(code.replace(\'\\r\\n\', \'\\n\'), layer, \'exec\')\n  File "D:\\cefet\\2009.2, 2010.1\\LocalHostWeb2Py\\MESTRE-20100227\\web2py\\applications\\Mestre/controllers/mcrud.py", line 21\n    registros=db(tabela).[registro_id] or redirect(URL(r=request,f=\'../default/error\'))\n                         ^\nSyntaxError: invalid syntax\n'
p8
s.