(dp1
S'output'
p2
S''
sS'layer'
p3
S'D:\\cefet\\2009.2, 2010.1\\LocalHostWeb2Py\\MESTRE-20100127\\web2py\\applications\\Mestre/views/default/index.html'
p4
sS'code'
p5
S'response.write(\'<!DOCTYPE html PUBLIC "-//W3C//DTD XHTML 1.0 Transitional//EN"\\r\\n   "http://www.w3.org/TR/xhtml1/DTD/xhtml1-transitional.dtd">\\r\\n<html xmlns="http://www.w3.org/1999/xhtml"\\r\\n      xml:lang="\',escape=False)\nresponse.write(T.accepted_language or \'en\')\nresponse.write(\'">\\r\\n  <head>\\r\\n      <title>\',escape=False)\nresponse.write(response.title or \'response.title\')\nresponse.write(\'</title>\\r\\n      <meta http-equiv="Content-Type" content="text/html; charset=UTF-8" />\\r\\n      <meta name="copyright" content="\',escape=False)\nresponse.write(response.copyright or \'\')\nresponse.write(\'" />\\r\\n      <meta name="keywords" content="\',escape=False)\nresponse.write(response.keywords or \'\')\nresponse.write(\'" />\\r\\n      <meta name="description" content="\',escape=False)\nresponse.write(response.description or \'\')\nresponse.write(\'" />\\r\\n      <meta name="robots" content="index,follow" />\\r\\n      \',escape=False)\nresponse.files.insert(0,URL(r=request,c=\'static\',f=\'jquery.js\'))\nresponse.files.insert(1,URL(r=request,c=\'static\',f=\'calendar.css\'))\nresponse.files.insert(2,URL(r=request,c=\'static\',f=\'calendar.js\'))\nfor _item in response.meta or []:\n    response.write(\'\\n     <meta name="\',escape=False)\n    response.write(_item)\n    response.write(\'" content="\',escape=False)\n    response.write(response.meta[_item])\n    response.write(\'" />\',escape=False)\n    pass\nfor _k,_file in enumerate(response.files or []):\n    if _file in response.files[:_k]:\n        continue\n    elif _file[-4:].lower()==\'.css\':\n        response.write(\'\\n     <link href="\',escape=False)\n        response.write(_file)\n        response.write(\'" rel="stylesheet" type="text/css" charset="utf-8" />\',escape=False)\n    elif _file[-3:].lower()==\'.js\':\n        response.write(\'\\n     <script src="\',escape=False)\n        response.write(_file)\n        response.write(\'" type="text/javascript"></script>\',escape=False)\n        pass\n    pass\nresponse.write(\'\\n<script type="text/javascript"><!--\\nfunction popup(url) {\\n  newwindow=window.open(url,\\\'name\\\',\\\'height=400,width=600\\\');\\n  if (window.focus) newwindow.focus();\\n  return false;\\n}\\nfunction collapse(id) { jQuery(\\\'#\\\'+id).slideToggle(); }\\nfunction fade(id,value) { if(value>0) jQuery(\\\'#\\\'+id).hide().fadeIn(\\\'slow\\\'); else jQuery(\\\'#\\\'+id).show().fadeOut(\\\'slow\\\'); }\\nfunction ajax(u,s,t) {\\n  var query="";\\n  for(i=0; i<s.length; i++) { \\n     if(i>0) query=query+"&";\\n     query=query+encodeURIComponent(s[i])+"="+encodeURIComponent(document.getElementById(s[i]).value);\\n  }\\n  jQuery.ajax({type: "POST", url: u, data: query, success: function(msg) { if(t==\\\':eval\\\') eval(msg); else document.getElementById(t).innerHTML=msg; } });  \\n}\\nString.prototype.reverse = function () { return this.split(\\\'\\\').reverse().join(\\\'\\\');};\\nfunction web2py_ajax_init() {\\n  jQuery(\\\'.hidden\\\').hide();\\n  jQuery(\\\'.error\\\').hide().slideDown(\\\'slow\\\');\\n  jQuery(\\\'.flash\\\').click(function() { jQuery(this).fadeOut(\\\'slow\\\'); return false; });\\n  jQuery(\\\'input.string\\\').attr(\\\'size\\\',50);\\n  jQuery(\\\'textarea.text\\\').attr(\\\'cols\\\',50).attr(\\\'rows\\\',10);\\n  jQuery(\\\'input.integer\\\').keyup(function(){this.value=this.value.reverse().replace(/[^0-9\\\\-]|\\\\-(?=.)/g,\\\'\\\').reverse();});\\n  jQuery(\\\'input.double\\\').keyup(function(){this.value=this.value.reverse().replace(/[^0-9\\\\-\\\\.]|[\\\\-](?=.)|[\\\\.](?=[0-9]*[\\\\.])/g,\\\'\\\').reverse();});\\n  jQuery(\\\'input.delete\\\').attr(\\\'onclick\\\',\\\'if(this.checked) if(!confirm("\',escape=False)\nresponse.write(T(\'Sure you want to delete this object?\'))\nresponse.write(\'")) this.checked=false;\\\');\\n  try {jQuery("input.date").focus( function() {Calendar.setup({\\n     inputField:this.id, ifFormat:"\',escape=False)\nresponse.write(T(\'%Y-%m-%d\'))\nresponse.write(\'", showsTime:false\\n  }); }); } catch(e) {};\\n  try { jQuery("input.datetime").focus( function() {Calendar.setup({\\n     inputField:this.id, ifFormat:"\',escape=False)\nresponse.write(T(\'%Y-%m-%d %H:%M:%S\'))\nresponse.write(\'", showsTime: true,timeFormat: "24"\\n  }); }); } catch(e) {};\\n  try { jQuery("input.time").clockpick({\\n      starthour:0, endhour:23, showminutes:true, military:true\\n  }); } catch(e) {};\\n};\\njQuery(document).ready(function(){\\n   jQuery(\\\'.flash\\\').hide();\\n   if(jQuery(\\\'.flash\\\').html()!=\\\'\\\') jQuery(\\\'.flash\\\').slideDown(\\\'slow\\\');\\n   web2py_ajax_init();});\\n\\nfunction web2py_trap_form(action,target) {\\n   jQuery(\\\'#\\\'+target+\\\' form\\\').each(function(i){\\n      var form=jQuery(this);\\n      jQuery(\\\'input[type="submit"]\\\',this).click(function(){\\n         jQuery(\\\'.flash\\\').hide().html(\\\'\\\');\\n         web2py_ajax_page(\\\'post\\\',action,form.serialize(),target);\\n         return false;\\n      });\\n   });\\n}\\nfunction web2py_ajax_page(method,action,data,target) {\\n  jQuery.ajax({\\\'type\\\':method,\\\'url\\\':action,\\\'data\\\':data,\\n    \\\'beforeSend\\\':function(xhr){\\n      xhr.setRequestHeader(\\\'web2py-component-location\\\',document.location);\\n      xhr.setRequestHeader(\\\'web2py-component-element\\\',target);},\\n    \\\'complete\\\':function(xhr,text){\\n      command=xhr.getResponseHeader(\\\'web2py-component-command\\\');\\n      if(command) eval(command);\\n      flash=xhr.getResponseHeader(\\\'web2py-component-flash\\\');\\n      if(flash) jQuery(\\\'.flash\\\').html(flash).slideDown();\\n      },\\n    \\\'success\\\': function(text) {\\n      jQuery(\\\'#\\\'+target).html(text);\\n      web2py_trap_form(action,target);\\n      web2py_ajax_init();\\n      }\\n    });\\n}\\nfunction web2py_component(action,target) {\\n    jQuery(document).ready(function(){ web2py_ajax_page(\\\'get\\\',action,null,target); });\\n}\\n//--></script>\\n\\r\\n      <link rel="stylesheet" media="screen,projection" type="text/css" \\r\\n            href="\',escape=False)\nresponse.write(URL(request.application,\'static\',\'base.css\'))\nresponse.write(\'" />\\r\\n  </head>\\r\\n  <body>\\r\\n    <div class="wrapper">\\r\\n      <table class="layout">\\r\\n        <tr>\\r\\n          <td colspan="3"  class="header">\\r\\n            <img heigth="30%" width="30%" align="rigth" src="/Mestre/static/logo.gif"/>\\r\\n            <!--<h1>\\r\\n            \',escape=False)\ntitle=response.title or \'response.title\'\nresponse.write(\'            \\r\\n            \',escape=False)\nresponse.write(A(title, _href=URL(request.application,\'default\',\'index\')))\nresponse.write(\'\\r\\n            </h1>            \\r\\n            <h3>\',escape=False)\nresponse.write(response.subtitle or \'response.subtitle\')\nresponse.write(\'</h3>-->\\r\\n          </td>\\r\\n        </tr>\\r\\n        <tr>\\r\\n          <td colspan="3" class="statusbar">\\r\\n            \',escape=False)\nresponse.write(\'/\'.join([\'\',request.application,request.controller,request.function]+request.args))\nresponse.write(\'\\r\\n          </td>\\r\\n        </tr>\\r\\n        <tr>\\r\\n          <td class="width10em column1">\\r\\n            \',escape=False)\nif response.menu_auth:\n    response.write(\'\\r\\n            <h2>Autentica\\xc3\\xa7\\xc3\\xa3o</h2>\\r\\n            \',escape=False)\n    response.write(MENU(response.menu_auth))\n    response.write(\'\\r\\n            \',escape=False)\n    pass\nresponse.write(\'\\r\\n            \',escape=False)\nif response.menu:\n    response.write(\'\\r\\n            <h2>Menu</h2>\\r\\n            \',escape=False)\n    response.write(MENU(response.menu))\n    response.write(\'\\r\\n            \',escape=False)\n    pass\nresponse.write(\'\\r\\n            \',escape=False)\nif not auth.user:\n    response.write(\'\\r\\n            <a href="\',escape=False)\n    response.write(URL(r=request,f=\'user/login\'))\n    response.write(\'">login</a>\\r\\n            \',escape=False)\nelse:\n    response.write(\'\\r\\n            \',escape=False)\n    response.write(auth.user.first_name)\n    response.write(\' |\\r\\n            <a href="\',escape=False)\n    response.write(URL(r=request,f=\'user/logout\'))\n    response.write(\'">logout</a> |\\r\\n            <a href="\',escape=False)\n    response.write(URL(r=request,f=\'user/change_password\'))\n    response.write(\'">password</a> |\\r\\n            <a href="\',escape=False)\n    response.write(URL(r=request,f=\'user/profile\'))\n    response.write(\'">profile</a>\\r\\n            \',escape=False)\n    pass\nresponse.write(\' \\r\\n            <br />\\r\\n          </td>\\r\\n          <td class="expandable column2">\\r\\n            <div class="flash">\',escape=False)\nresponse.write(response.flash or \'\')\nresponse.write(\'</div>\\r\\n            \\r\\n\',escape=False)\nresponse.write(form)\nresponse.write(\'\\r\\n<br/>\\r\\n<center>\\r\\n<!--img src="\',escape=False)\nresponse.write(URL(r=request,c=\'static\',f=\'collaboration.jpg\'))\nresponse.write(\'" style="border: 5px solid #666"/-->\\r\\n<img align="rigth" src="/Mestre/static/bannertt.jpg"/>\\r\\n<br>\\r\\nEste site e o primeiro conceito do estudo de Python/Web2py.\\r\\nEstamos desenvolvendo uma ferramenta de avalia\\xc3\\xa7\\xc3\\xa3o de alunos com base na Teoria Revisada de BlOOM.\\r\\n</center>\\r\\n\\r\\n          </td>\\r\\n          <!--\\r\\n               <td class="width10em column3">\\r\\n                 <h2>Right Column</h2>\\r\\n               </td>\\r\\n          //-->\\r\\n        </tr>\\r\\n        <tr>\\r\\n          <td colspan="10" class="footer">\\r\\n            <p>\\r\\n            Site de Estudo desenvolvido por: Jos\\xc3\\xa9 Roberto, Vagton Alves Ferreira. Todos os direitos reservados.\\r\\n            </p>\\r\\n          </td>\\r\\n        </tr>\\r\\n      </table>\\r\\n    </div>\\r\\n  </body>\\r\\n</html>\\r\\n\',escape=False)'
p6
sS'traceback'
p7
S'Traceback (most recent call last):\n  File "D:\\cefet\\2009.2, 2010.1\\LocalHostWeb2Py\\MESTRE-20100127\\web2py\\gluon\\restricted.py", line 173, in restricted\n    exec ccode in environment\n  File "D:\\cefet\\2009.2, 2010.1\\LocalHostWeb2Py\\MESTRE-20100127\\web2py\\applications\\Mestre/views/default/index.html", line 82, in <module>\nNameError: name \'form\' is not defined\n'
p8
s.